target datalayout = "e-m:e-p270:32:32-p271:32:32-p272:64:64-i64:64-i128:128-f80:128-n8:16:32:64-S128"
target triple = "x86_64-pc-linux-gnu"

%"struct.nanobind::detail::arg_data" = type { ptr, ptr, ptr, ptr, i8 }
%"struct.nanobind::detail::func_data_prelim" = type { [3 x ptr], ptr, ptr, ptr, ptr, i32, i16, i16, ptr, ptr, ptr, [0 x %"struct.nanobind::detail::arg_data"] }

@_ZTIN8nanobind17builtin_exceptionE = external constant ptr
@_ZTIN8nanobind12python_errorE = external constant ptr

; Function Attrs: inlinehint mustprogress nounwind uwtable
define internal noundef i64 @_ZL18PyVectorcall_NARGSm(i64 noundef %0) #12 {
  %2 = alloca i64, align 8
  store i64 %0, ptr %2, align 8
  %3 = load i64, ptr %2, align 8
  %4 = and i64 %3, 9223372036854775807
  ret i64 %4
}

; Function Attrs: alwaysinline mustprogress nounwind uwtable
define linkonce_odr hidden noundef ptr @_ZN8nanobind6detail12nb_func_dataEPv(ptr noundef %0) #2 comdat {
  %2 = alloca ptr, align 8
  store ptr %0, ptr %2, align 8
  %3 = load ptr, ptr %2, align 8
  %4 = getelementptr inbounds nuw i8, ptr %3, i64 40
  ret ptr %4
}

; Function Attrs: mustprogress nounwind uwtable
define internal noundef ptr @_ZN8nanobind6detailL27nb_func_vectorcall_simple_0EP7_objectPKS2_mS2_(ptr noundef %0, ptr noundef %1, i64 noundef %2, ptr noundef %3) #8 personality ptr @__gxx_personality_v0 {
  %5 = alloca ptr, align 8
  %6 = alloca ptr, align 8
  %7 = alloca i64, align 8
  %8 = alloca ptr, align 8
  %9 = alloca ptr, align 8
  %10 = alloca i64, align 8
  %11 = alloca ptr, align 8
  %12 = alloca ptr, align 8
  %13 = alloca ptr, align 8
  %14 = alloca i32, align 4
  %15 = alloca ptr, align 8
  %16 = alloca ptr, align 8
  store ptr %0, ptr %5, align 8
  store ptr %1, ptr %6, align 8
  store i64 %2, ptr %7, align 8
  store ptr %3, ptr %8, align 8
  call void @llvm.lifetime.start.p0(i64 8, ptr %9) #22
  %17 = load ptr, ptr %5, align 8
  %18 = call noundef ptr @_ZN8nanobind6detail12nb_func_dataEPv(ptr noundef %17)
  store ptr %18, ptr %9, align 8
  call void @llvm.lifetime.start.p0(i64 8, ptr %10) #22
  %19 = load i64, ptr %7, align 8
  %20 = call noundef i64 @_ZL18PyVectorcall_NARGSm(i64 noundef %19)
  store i64 %20, ptr %10, align 8
  call void @llvm.lifetime.start.p0(i64 8, ptr %11) #22
  store ptr null, ptr %11, align 8
  call void @llvm.lifetime.start.p0(i64 8, ptr %12) #22
  store ptr null, ptr %12, align 8
  %21 = load ptr, ptr %8, align 8
  %22 = icmp eq ptr %21, null
  br i1 %22, label %23, label %79

23:                                               ; preds = %4
  %24 = load i64, ptr %10, align 8
  %25 = icmp eq i64 %24, 0
  br i1 %25, label %26, label %79

26:                                               ; preds = %23
  %27 = load ptr, ptr %9, align 8
  %28 = getelementptr inbounds nuw %"struct.nanobind::detail::func_data_prelim", ptr %27, i32 0, i32 2
  %29 = load ptr, ptr %28, align 8
  %30 = load ptr, ptr %9, align 8
  %31 = getelementptr inbounds nuw %"struct.nanobind::detail::func_data_prelim", ptr %30, i32 0, i32 0
  %32 = getelementptr inbounds [3 x ptr], ptr %31, i64 0, i64 0
  %33 = load ptr, ptr %6, align 8
  %34 = load ptr, ptr %9, align 8
  %35 = getelementptr inbounds nuw %"struct.nanobind::detail::func_data_prelim", ptr %34, i32 0, i32 5
  %36 = load i32, ptr %35, align 8
  %37 = and i32 %36, 7
  %38 = invoke noundef ptr %29(ptr noundef %32, ptr noundef %33, ptr noundef null, i32 noundef %37, ptr noundef null)
          to label %39 unwind label %43

39:                                               ; preds = %26
  store ptr %38, ptr %12, align 8
  %40 = load ptr, ptr %12, align 8
  %41 = icmp eq ptr %40, inttoptr (i64 1 to ptr)
  br i1 %41, label %42, label %70

42:                                               ; preds = %39
  store ptr @_ZN8nanobind6detailL22nb_func_error_overloadEP7_objectPKS2_mS2_, ptr %11, align 8
  br label %75

43:                                               ; preds = %26
  %44 = landingpad { ptr, i32 }
          catch ptr @_ZTIN8nanobind17builtin_exceptionE
          catch ptr @_ZTIN8nanobind12python_errorE
          catch ptr null
  %45 = extractvalue { ptr, i32 } %44, 0
  store ptr %45, ptr %13, align 8
  %46 = extractvalue { ptr, i32 } %44, 1
  store i32 %46, ptr %14, align 4
  br label %47

47:                                               ; preds = %43
  %48 = load i32, ptr %14, align 4
  %49 = call i32 @llvm.eh.typeid.for.p0(ptr @_ZTIN8nanobind17builtin_exceptionE) #22
  %50 = icmp eq i32 %48, %49
  br i1 %50, label %51, label %58

51:                                               ; preds = %47
  call void @llvm.lifetime.start.p0(i64 8, ptr %16) #22
  %52 = load ptr, ptr %13, align 8
  %53 = call ptr @__cxa_begin_catch(ptr %52) #22
  store ptr %53, ptr %16, align 8
  %54 = load ptr, ptr %16, align 8
  %55 = invoke noundef zeroext i1 @_ZN8nanobind6detailL28set_builtin_exception_statusERNS_17builtin_exceptionE(ptr noundef nonnull align 8 dereferenceable(20) %54)
          to label %56 unwind label %95

56:                                               ; preds = %51
  br i1 %55, label %76, label %57

57:                                               ; preds = %56
  store ptr @_ZN8nanobind6detailL22nb_func_error_overloadEP7_objectPKS2_mS2_, ptr %11, align 8
  br label %76

58:                                               ; preds = %47
  %59 = call i32 @llvm.eh.typeid.for.p0(ptr @_ZTIN8nanobind12python_errorE) #22
  %60 = icmp eq i32 %48, %59
  br i1 %60, label %61, label %66

61:                                               ; preds = %58
  call void @llvm.lifetime.start.p0(i64 8, ptr %15) #22
  %62 = load ptr, ptr %13, align 8
  %63 = call ptr @__cxa_begin_catch(ptr %62) #22
  store ptr %63, ptr %15, align 8
  %64 = load ptr, ptr %15, align 8
  call void @_ZN8nanobind12python_error7restoreEv(ptr noundef nonnull align 8 dereferenceable(40) %64) #22
  invoke void @__cxa_end_catch()
          to label %65 unwind label %95

65:                                               ; preds = %61
  call void @llvm.lifetime.end.p0(i64 8, ptr %15) #22
  br label %78

66:                                               ; preds = %58
  %67 = load ptr, ptr %13, align 8
  %68 = call ptr @__cxa_begin_catch(ptr %67) #22
  call void @_ZN8nanobind6detailL29nb_func_convert_cpp_exceptionEv() #22
  invoke void @__cxa_end_catch()
          to label %69 unwind label %95

69:                                               ; preds = %66
  br label %78

70:                                               ; preds = %39
  %71 = load ptr, ptr %12, align 8
  %72 = icmp ne ptr %71, null
  br i1 %72, label %74, label %73

73:                                               ; preds = %70
  store ptr @_ZN8nanobind6detailL23nb_func_error_noconvertEP7_objectPKS2_mS2_, ptr %11, align 8
  br label %74

74:                                               ; preds = %73, %70
  br label %75

75:                                               ; preds = %74, %42
  br label %78

76:                                               ; preds = %57, %56
  invoke void @__cxa_end_catch()
          to label %77 unwind label %95

77:                                               ; preds = %76
  call void @llvm.lifetime.end.p0(i64 8, ptr %16) #22
  br label %78

78:                                               ; preds = %77, %65, %69, %75
  br label %80

79:                                               ; preds = %23, %4
  store ptr @_ZN8nanobind6detailL22nb_func_error_overloadEP7_objectPKS2_mS2_, ptr %11, align 8
  br label %80

80:                                               ; preds = %79, %78
  %81 = load ptr, ptr %11, align 8
  %82 = icmp ne ptr %81, null
  %83 = zext i1 %82 to i64
  %84 = call i64 @llvm.expect.i64(i64 %83, i64 0)
  %85 = icmp ne i64 %84, 0
  br i1 %85, label %86, label %93

86:                                               ; preds = %80
  %87 = load ptr, ptr %11, align 8
  %88 = load ptr, ptr %5, align 8
  %89 = load ptr, ptr %6, align 8
  %90 = load i64, ptr %10, align 8
  %91 = load ptr, ptr %8, align 8
  %92 = call noundef ptr %87(ptr noundef %88, ptr noundef %89, i64 noundef %90, ptr noundef %91) #22
  store ptr %92, ptr %12, align 8
  br label %93

93:                                               ; preds = %86, %80
  %94 = load ptr, ptr %12, align 8
  call void @llvm.lifetime.end.p0(i64 8, ptr %12) #22
  call void @llvm.lifetime.end.p0(i64 8, ptr %11) #22
  call void @llvm.lifetime.end.p0(i64 8, ptr %10) #22
  call void @llvm.lifetime.end.p0(i64 8, ptr %9) #22
  ret ptr %94

95:                                               ; preds = %76, %51, %61, %66
  %96 = landingpad { ptr, i32 }
          catch ptr null
  %97 = extractvalue { ptr, i32 } %96, 0
  call void @__clang_call_terminate(ptr %97) #24
  unreachable
}