; Function Attrs: mustprogress nounwind uwtable
define internal noundef ptr @_ZN8nanobind6detailL27nb_func_vectorcall_simple_0EP7_objectPKS2_mS2_(ptr noundef %0, ptr noundef %1, i64 noundef %2, ptr noundef %3) #5 personality ptr @__gxx_personality_v0 {
  %5 = and i64 %2, 9223372036854775807
  %6 = icmp eq ptr %3, null
  %7 = icmp eq i64 %5, 0
  %or.cond = and i1 %6, %7
  br i1 %or.cond, label %8, label %.thread34

8:                                                ; preds = %4
  %9 = getelementptr inbounds nuw i8, ptr %0, i64 40
  %10 = getelementptr inbounds nuw i8, ptr %0, i64 72
  %11 = load ptr, ptr %10, align 8
  %12 = getelementptr inbounds nuw i8, ptr %0, i64 96
  %13 = load i32, ptr %12, align 8
  %14 = and i32 %13, 7
  %15 = invoke noundef ptr %11(ptr noundef nonnull %9, ptr noundef %1, ptr noundef null, i32 noundef %14, ptr noundef null)
          to label %16 unwind label %17

16:                                               ; preds = %8
  %magicptr = ptrtoint ptr %15 to i64
  switch i64 %magicptr, label %.thread [
    i64 1, label %.thread34
    i64 0, label %33
  ]

17:                                               ; preds = %8
  %18 = landingpad { ptr, i32 }
          catch ptr @_ZTIN8nanobind17builtin_exceptionE
          catch ptr @_ZTIN8nanobind12python_errorE
          catch ptr null
  %19 = extractvalue { ptr, i32 } %18, 0
  %20 = extractvalue { ptr, i32 } %18, 1
  %21 = tail call i32 @llvm.eh.typeid.for.p0(ptr nonnull @_ZTIN8nanobind17builtin_exceptionE) #25
  %22 = icmp eq i32 %20, %21
  br i1 %22, label %23, label %27

23:                                               ; preds = %17
  %24 = tail call ptr @__cxa_begin_catch(ptr %19) #25
  %25 = invoke fastcc noundef zeroext i1 @_ZN8nanobind6detailL28set_builtin_exception_statusERNS_17builtin_exceptionE(ptr noundef nonnull align 8 dereferenceable(20) %24)
          to label %26 unwind label %36

26:                                               ; preds = %23
  invoke void @__cxa_end_catch()
          to label %34 unwind label %36

27:                                               ; preds = %17
  %28 = tail call i32 @llvm.eh.typeid.for.p0(ptr nonnull @_ZTIN8nanobind12python_errorE) #25
  %29 = icmp eq i32 %20, %28
  %30 = tail call ptr @__cxa_begin_catch(ptr %19) #25
  br i1 %29, label %31, label %32

31:                                               ; preds = %27
  tail call void @_ZN8nanobind12python_error7restoreEv(ptr noundef nonnull align 8 dereferenceable(40) %30) #25
  br label %.invoke

32:                                               ; preds = %27
  tail call fastcc void @_ZN8nanobind6detailL29nb_func_convert_cpp_exceptionEv() #25
  br label %.invoke

.invoke:                                          ; preds = %31, %32
  invoke void @__cxa_end_catch()
          to label %.thread unwind label %36

33:                                               ; preds = %16
  br label %.thread34

34:                                               ; preds = %26
  br i1 %25, label %.thread, label %.thread34, !prof !37

.thread34:                                        ; preds = %4, %16, %33, %34
  %.138 = phi ptr [ @_ZN8nanobind6detailL22nb_func_error_overloadEP7_objectPKS2_mS2_, %34 ], [ @_ZN8nanobind6detailL22nb_func_error_overloadEP7_objectPKS2_mS2_, %4 ], [ @_ZN8nanobind6detailL22nb_func_error_overloadEP7_objectPKS2_mS2_, %16 ], [ @_ZN8nanobind6detailL23nb_func_error_noconvertEP7_objectPKS2_mS2_, %33 ]
  %35 = tail call noundef ptr %.138(ptr noundef %0, ptr noundef %1, i64 noundef %5, ptr noundef %3) #25, !callees !36
  br label %.thread

.thread:                                          ; preds = %.invoke, %16, %.thread34, %34
  %.124 = phi ptr [ %35, %.thread34 ], [ null, %34 ], [ %15, %16 ], [ null, %.invoke ]
  ret ptr %.124

36:                                               ; preds = %.invoke, %26, %23
  %37 = landingpad { ptr, i32 }
          catch ptr null
  %38 = extractvalue { ptr, i32 } %37, 0
  tail call void @__clang_call_terminate(ptr %38) #26
  unreachable
}